target datalayout = "e-m:e-p270:32:32-p271:32:32-p272:64:64-i64:64-i128:128-f80:128-n8:16:32:64-S128"
target triple = "x86_64-pc-linux-gnu"

%"class.boost::container::pmr::pool_resource" = type { %"struct.boost::container::pmr::pool_options", ptr, %"class.boost::container::pmr::block_list_base", ptr, i64 }
%"struct.boost::container::pmr::pool_options" = type { i64, i64 }
%"class.boost::container::pmr::block_list_base" = type { %"struct.boost::container::pmr::list_node" }
%"struct.boost::container::pmr::list_node" = type { ptr, ptr }

@_ZN5boost9container3pmr48pool_options_minimum_largest_required_pool_blockE = linkonce_odr hidden constant i64 16, comdat, align 8

; Function Attrs: mustprogress nounwind uwtable
define linkonce_odr hidden noundef i64 @_ZN5boost9intrusive6detail20builtin_clz_dispatchImE4callEm(i64 noundef %0) #1 comdat align 2 {
  %2 = alloca i64, align 8
  store i64 %0, ptr %2, align 8, !tbaa !7
  %3 = load i64, ptr %2, align 8, !tbaa !7
  %4 = call i64 @llvm.ctlz.i64(i64 %3, i1 true)
  %5 = trunc i64 %4 to i32
  %6 = sext i32 %5 to i64
  ret i64 %6
}

; Function Attrs: inlinehint mustprogress uwtable
define linkonce_odr hidden noundef i64 @_ZN5boost9intrusive6detail10floor_log2Em(i64 noundef %0) #2 comdat {
  %2 = alloca i64, align 8
  store i64 %0, ptr %2, align 8, !tbaa !7
  %3 = load i64, ptr %2, align 8, !tbaa !7
  %4 = call noundef i64 @_ZN5boost9intrusive6detail20builtin_clz_dispatchImE4callEm(i64 noundef %3)
  %5 = sub i64 63, %4
  ret i64 %5
}

; Function Attrs: inlinehint mustprogress nounwind uwtable
define linkonce_odr hidden noundef zeroext i1 @_ZN5boost9intrusive6detail7is_pow2Em(i64 noundef %0) #4 comdat {
  %2 = alloca i64, align 8
  store i64 %0, ptr %2, align 8, !tbaa !7
  %3 = load i64, ptr %2, align 8, !tbaa !7
  %4 = load i64, ptr %2, align 8, !tbaa !7
  %5 = sub i64 %4, 1
  %6 = and i64 %3, %5
  %7 = icmp eq i64 %6, 0
  ret i1 %7
}

; Function Attrs: inlinehint mustprogress uwtable
define linkonce_odr hidden noundef i64 @_ZN5boost9intrusive6detail9ceil_log2Em(i64 noundef %0) #2 comdat {
  %2 = alloca i64, align 8
  store i64 %0, ptr %2, align 8, !tbaa !7
  %3 = load i64, ptr %2, align 8, !tbaa !7
  %4 = call noundef zeroext i1 @_ZN5boost9intrusive6detail7is_pow2Em(i64 noundef %3)
  %5 = xor i1 %4, true
  %6 = zext i1 %5 to i64
  %7 = load i64, ptr %2, align 8, !tbaa !7
  %8 = call noundef i64 @_ZN5boost9intrusive6detail10floor_log2Em(i64 noundef %7)
  %9 = add i64 %6, %8
  ret i64 %9
}

; Function Attrs: mustprogress nounwind uwtable
define linkonce_odr hidden noundef nonnull align 8 dereferenceable(8) ptr @_ZN5boost9container3dtl9max_valueImEERKT_S5_S5_(ptr noundef nonnull align 8 dereferenceable(8) %0, ptr noundef nonnull align 8 dereferenceable(8) %1) #1 comdat {
  %3 = alloca ptr, align 8
  %4 = alloca ptr, align 8
  store ptr %0, ptr %3, align 8, !tbaa !3
  store ptr %1, ptr %4, align 8, !tbaa !3
  %5 = load ptr, ptr %3, align 8, !tbaa !3
  %6 = load i64, ptr %5, align 8, !tbaa !7
  %7 = load ptr, ptr %4, align 8, !tbaa !3
  %8 = load i64, ptr %7, align 8, !tbaa !7
  %9 = icmp ugt i64 %6, %8
  br i1 %9, label %10, label %12

10:                                               ; preds = %2
  %11 = load ptr, ptr %3, align 8, !tbaa !3
  br label %14

12:                                               ; preds = %2
  %13 = load ptr, ptr %4, align 8, !tbaa !3
  br label %14

14:                                               ; preds = %12, %10
  %15 = phi ptr [ %11, %10 ], [ %13, %12 ]
  ret ptr %15
}

; Function Attrs: mustprogress uwtable
define hidden noundef i64 @_ZN5boost9container3pmr13pool_resource15priv_pool_indexEm(i64 noundef %0) #0 align 2 {
  %2 = alloca i64, align 8
  store i64 %0, ptr %2, align 8, !tbaa !7
  %3 = call noundef nonnull align 8 dereferenceable(8) ptr @_ZN5boost9container3dtl9max_valueImEERKT_S5_S5_(ptr noundef nonnull align 8 dereferenceable(8) %2, ptr noundef nonnull align 8 dereferenceable(8) @_ZN5boost9container3pmr48pool_options_minimum_largest_required_pool_blockE)
  %4 = load i64, ptr %3, align 8, !tbaa !7
  store i64 %4, ptr %2, align 8, !tbaa !7
  %5 = load i64, ptr %2, align 8, !tbaa !7
  %6 = call noundef i64 @_ZN5boost9intrusive6detail9ceil_log2Em(i64 noundef %5)
  %7 = call noundef i64 @_ZN5boost9intrusive6detail9ceil_log2Em(i64 noundef 16)
  %8 = sub i64 %6, %7
  ret i64 %8
}

; Function Attrs: mustprogress uwtable
define hidden noundef i64 @_ZNK5boost9container3pmr13pool_resource10pool_countEv(ptr noundef nonnull align 8 dereferenceable(56) %0) #0 align 2 {
  %2 = alloca i64, align 8
  %3 = alloca ptr, align 8
  store ptr %0, ptr %3, align 8, !tbaa !3
  %4 = load ptr, ptr %3, align 8
  %5 = getelementptr inbounds nuw %"class.boost::container::pmr::pool_resource", ptr %4, i32 0, i32 3
  %6 = load ptr, ptr %5, align 8, !tbaa !15
  %7 = icmp ne ptr null, %6
  %8 = zext i1 %7 to i64
  %9 = call i64 @llvm.expect.i64(i64 %8, i64 1)
  %10 = icmp ne i64 %9, 0
  br i1 %10, label %11, label %14

11:                                               ; preds = %1
  %12 = getelementptr inbounds nuw %"class.boost::container::pmr::pool_resource", ptr %4, i32 0, i32 4
  %13 = load i64, ptr %12, align 8, !tbaa !18
  store i64 %13, ptr %2, align 8
  br label %20

14:                                               ; preds = %1
  %15 = getelementptr inbounds nuw %"class.boost::container::pmr::pool_resource", ptr %4, i32 0, i32 0
  %16 = getelementptr inbounds nuw %"struct.boost::container::pmr::pool_options", ptr %15, i32 0, i32 1
  %17 = load i64, ptr %16, align 8, !tbaa !9
  %18 = call noundef i64 @_ZN5boost9container3pmr13pool_resource15priv_pool_indexEm(i64 noundef %17)
  %19 = add i64 %18, 1
  store i64 %19, ptr %2, align 8
  br label %20

20:                                               ; preds = %14, %11
  %21 = load i64, ptr %2, align 8
  ret i64 %21
}