; Function Attrs: mustprogress nofree norecurse nosync nounwind willreturn memory(argmem: read) uwtable
define hidden noundef i64 @_ZNK5boost9container3pmr13pool_resource10pool_countEv(ptr nocapture noundef nonnull readonly align 8 dereferenceable(56) %0) local_unnamed_addr #9 align 2 {
  %2 = getelementptr inbounds nuw i8, ptr %0, i64 40
  %3 = load ptr, ptr %2, align 8, !tbaa !16
  %.not = icmp eq ptr %3, null
  br i1 %.not, label %7, label %4, !prof !36

4:                                                ; preds = %1
  %5 = getelementptr inbounds nuw i8, ptr %0, i64 48
  %6 = load i64, ptr %5, align 8, !tbaa !17
  br label %13

7:                                                ; preds = %1
  %8 = getelementptr inbounds nuw i8, ptr %0, i64 8
  %9 = load i64, ptr %8, align 8, !tbaa !7
  %.sroa.speculated.i = tail call i64 @llvm.umax.i64(i64 %9, i64 16)
  %10 = add i64 %.sroa.speculated.i, -1
  %11 = tail call range(i64 0, 65) i64 @llvm.ctlz.i64(i64 %10, i1 false)
  %12 = sub nuw nsw i64 61, %11
  br label %13

13:                                               ; preds = %7, %4
  %.0 = phi i64 [ %6, %4 ], [ %12, %7 ]
  ret i64 %.0
}